; ModuleID = '46/1749.c'
source_filename = "46/1749.c"
target datalayout = "e-m:e-p270:32:32-p271:32:32-p272:64:64-i64:64-f80:128-n8:16:32:64-S128"
target triple = "x86_64-pc-linux-gnu"

@.str = private unnamed_addr constant [5 x i8] c"%d%d\00", align 1
@.str.1 = private unnamed_addr constant [3 x i8] c"%d\00", align 1
@.str.2 = private unnamed_addr constant [4 x i8] c"%d\0A\00", align 1

; Function Attrs: noinline nounwind uwtable
define dso_local i32 @main() #0 {
  %1 = alloca i32, align 4
  %2 = alloca i32, align 4
  %3 = alloca i32, align 4
  %4 = alloca i32, align 4
  %5 = alloca i32, align 4
  %6 = alloca i32, align 4
  %7 = alloca i32, align 4
  %8 = alloca i32, align 4
  %9 = alloca [100 x [100 x i32]], align 16
  %10 = alloca i32, align 4
  store i32 0, i32* %1, align 4
  store i32 0, i32* %10, align 4
  %11 = call i32 (i8*, ...) @__isoc99_scanf(i8* getelementptr inbounds ([5 x i8], [5 x i8]* @.str, i64 0, i64 0), i32* %6, i32* %7)
  store i32 0, i32* %2, align 4
  br label %12

12:                                               ; preds = %33, %0
  %13 = load i32, i32* %2, align 4
  %14 = load i32, i32* %6, align 4
  %15 = icmp slt i32 %13, %14
  br i1 %15, label %16, label %36

16:                                               ; preds = %12
  store i32 0, i32* %3, align 4
  br label %17

17:                                               ; preds = %29, %16
  %18 = load i32, i32* %3, align 4
  %19 = load i32, i32* %7, align 4
  %20 = icmp slt i32 %18, %19
  br i1 %20, label %21, label %32

21:                                               ; preds = %17
  %22 = load i32, i32* %2, align 4
  %23 = sext i32 %22 to i64
  %24 = getelementptr inbounds [100 x [100 x i32]], [100 x [100 x i32]]* %9, i64 0, i64 %23
  %25 = load i32, i32* %3, align 4
  %26 = sext i32 %25 to i64
  %27 = getelementptr inbounds [100 x i32], [100 x i32]* %24, i64 0, i64 %26
  %28 = call i32 (i8*, ...) @__isoc99_scanf(i8* getelementptr inbounds ([3 x i8], [3 x i8]* @.str.1, i64 0, i64 0), i32* %27)
  br label %29

29:                                               ; preds = %21
  %30 = load i32, i32* %3, align 4
  %31 = add nsw i32 %30, 1
  store i32 %31, i32* %3, align 4
  br label %17

32:                                               ; preds = %17
  br label %33

33:                                               ; preds = %32
  %34 = load i32, i32* %2, align 4
  %35 = add nsw i32 %34, 1
  store i32 %35, i32* %2, align 4
  br label %12

36:                                               ; preds = %12
  store i32 0, i32* %2, align 4
  store i32 0, i32* %3, align 4
  %37 = load i32, i32* %6, align 4
  %38 = sub nsw i32 %37, 1
  store i32 %38, i32* %4, align 4
  %39 = load i32, i32* %7, align 4
  %40 = sub nsw i32 %39, 1
  store i32 %40, i32* %5, align 4
  br label %41

41:                                               ; preds = %164, %36
  %42 = load i32, i32* %2, align 4
  %43 = load i32, i32* %4, align 4
  %44 = icmp sle i32 %42, %43
  br i1 %44, label %45, label %49

45:                                               ; preds = %41
  %46 = load i32, i32* %3, align 4
  %47 = load i32, i32* %5, align 4
  %48 = icmp sle i32 %46, %47
  br label %49

49:                                               ; preds = %45, %41
  %50 = phi i1 [ false, %41 ], [ %48, %45 ]
  br i1 %50, label %51, label %173

51:                                               ; preds = %49
  %52 = load i32, i32* %3, align 4
  store i32 %52, i32* %8, align 4
  br label %53

53:                                               ; preds = %68, %51
  %54 = load i32, i32* %8, align 4
  %55 = load i32, i32* %5, align 4
  %56 = icmp sle i32 %54, %55
  br i1 %56, label %57, label %71

57:                                               ; preds = %53
  %58 = load i32, i32* %2, align 4
  %59 = sext i32 %58 to i64
  %60 = getelementptr inbounds [100 x [100 x i32]], [100 x [100 x i32]]* %9, i64 0, i64 %59
  %61 = load i32, i32* %8, align 4
  %62 = sext i32 %61 to i64
  %63 = getelementptr inbounds [100 x i32], [100 x i32]* %60, i64 0, i64 %62
  %64 = load i32, i32* %63, align 4
  %65 = call i32 (i8*, ...) @printf(i8* getelementptr inbounds ([4 x i8], [4 x i8]* @.str.2, i64 0, i64 0), i32 %64)
  %66 = load i32, i32* %10, align 4
  %67 = add nsw i32 %66, 1
  store i32 %67, i32* %10, align 4
  br label %68

68:                                               ; preds = %57
  %69 = load i32, i32* %8, align 4
  %70 = add nsw i32 %69, 1
  store i32 %70, i32* %8, align 4
  br label %53

71:                                               ; preds = %53
  %72 = load i32, i32* %10, align 4
  %73 = load i32, i32* %6, align 4
  %74 = load i32, i32* %7, align 4
  %75 = mul nsw i32 %73, %74
  %76 = icmp eq i32 %72, %75
  br i1 %76, label %77, label %78

77:                                               ; preds = %71
  br label %173

78:                                               ; preds = %71
  %79 = load i32, i32* %2, align 4
  %80 = add nsw i32 %79, 1
  store i32 %80, i32* %8, align 4
  br label %81

81:                                               ; preds = %96, %78
  %82 = load i32, i32* %8, align 4
  %83 = load i32, i32* %4, align 4
  %84 = icmp sle i32 %82, %83
  br i1 %84, label %85, label %99

85:                                               ; preds = %81
  %86 = load i32, i32* %8, align 4
  %87 = sext i32 %86 to i64
  %88 = getelementptr inbounds [100 x [100 x i32]], [100 x [100 x i32]]* %9, i64 0, i64 %87
  %89 = load i32, i32* %5, align 4
  %90 = sext i32 %89 to i64
  %91 = getelementptr inbounds [100 x i32], [100 x i32]* %88, i64 0, i64 %90
  %92 = load i32, i32* %91, align 4
  %93 = call i32 (i8*, ...) @printf(i8* getelementptr inbounds ([4 x i8], [4 x i8]* @.str.2, i64 0, i64 0), i32 %92)
  %94 = load i32, i32* %10, align 4
  %95 = add nsw i32 %94, 1
  store i32 %95, i32* %10, align 4
  br label %96

96:                                               ; preds = %85
  %97 = load i32, i32* %8, align 4
  %98 = add nsw i32 %97, 1
  store i32 %98, i32* %8, align 4
  br label %81

99:                                               ; preds = %81
  %100 = load i32, i32* %10, align 4
  %101 = load i32, i32* %6, align 4
  %102 = load i32, i32* %7, align 4
  %103 = mul nsw i32 %101, %102
  %104 = icmp eq i32 %100, %103
  br i1 %104, label %105, label %106

105:                                              ; preds = %99
  br label %173

106:                                              ; preds = %99
  %107 = load i32, i32* %5, align 4
  %108 = sub nsw i32 %107, 1
  store i32 %108, i32* %8, align 4
  br label %109

109:                                              ; preds = %124, %106
  %110 = load i32, i32* %8, align 4
  %111 = load i32, i32* %3, align 4
  %112 = icmp sge i32 %110, %111
  br i1 %112, label %113, label %127

113:                                              ; preds = %109
  %114 = load i32, i32* %4, align 4
  %115 = sext i32 %114 to i64
  %116 = getelementptr inbounds [100 x [100 x i32]], [100 x [100 x i32]]* %9, i64 0, i64 %115
  %117 = load i32, i32* %8, align 4
  %118 = sext i32 %117 to i64
  %119 = getelementptr inbounds [100 x i32], [100 x i32]* %116, i64 0, i64 %118
  %120 = load i32, i32* %119, align 4
  %121 = call i32 (i8*, ...) @printf(i8* getelementptr inbounds ([4 x i8], [4 x i8]* @.str.2, i64 0, i64 0), i32 %120)
  %122 = load i32, i32* %10, align 4
  %123 = add nsw i32 %122, 1
  store i32 %123, i32* %10, align 4
  br label %124

124:                                              ; preds = %113
  %125 = load i32, i32* %8, align 4
  %126 = add nsw i32 %125, -1
  store i32 %126, i32* %8, align 4
  br label %109

127:                                              ; preds = %109
  %128 = load i32, i32* %10, align 4
  %129 = load i32, i32* %6, align 4
  %130 = load i32, i32* %7, align 4
  %131 = mul nsw i32 %129, %130
  %132 = icmp eq i32 %128, %131
  br i1 %132, label %133, label %134

133:                                              ; preds = %127
  br label %173

134:                                              ; preds = %127
  %135 = load i32, i32* %4, align 4
  %136 = sub nsw i32 %135, 1
  store i32 %136, i32* %8, align 4
  br label %137

137:                                              ; preds = %153, %134
  %138 = load i32, i32* %8, align 4
  %139 = load i32, i32* %2, align 4
  %140 = add nsw i32 %139, 1
  %141 = icmp sge i32 %138, %140
  br i1 %141, label %142, label %156

142:                                              ; preds = %137
  %143 = load i32, i32* %8, align 4
  %144 = sext i32 %143 to i64
  %145 = getelementptr inbounds [100 x [100 x i32]], [100 x [100 x i32]]* %9, i64 0, i64 %144
  %146 = load i32, i32* %3, align 4
  %147 = sext i32 %146 to i64
  %148 = getelementptr inbounds [100 x i32], [100 x i32]* %145, i64 0, i64 %147
  %149 = load i32, i32* %148, align 4
  %150 = call i32 (i8*, ...) @printf(i8* getelementptr inbounds ([4 x i8], [4 x i8]* @.str.2, i64 0, i64 0), i32 %149)
  %151 = load i32, i32* %10, align 4
  %152 = add nsw i32 %151, 1
  store i32 %152, i32* %10, align 4
  br label %153

153:                                              ; preds = %142
  %154 = load i32, i32* %8, align 4
  %155 = add nsw i32 %154, -1
  store i32 %155, i32* %8, align 4
  br label %137

156:                                              ; preds = %137
  %157 = load i32, i32* %10, align 4
  %158 = load i32, i32* %6, align 4
  %159 = load i32, i32* %7, align 4
  %160 = mul nsw i32 %158, %159
  %161 = icmp eq i32 %157, %160
  br i1 %161, label %162, label %163

162:                                              ; preds = %156
  br label %173

163:                                              ; preds = %156
  br label %164

164:                                              ; preds = %163
  %165 = load i32, i32* %2, align 4
  %166 = add nsw i32 %165, 1
  store i32 %166, i32* %2, align 4
  %167 = load i32, i32* %3, align 4
  %168 = add nsw i32 %167, 1
  store i32 %168, i32* %3, align 4
  %169 = load i32, i32* %4, align 4
  %170 = add nsw i32 %169, -1
  store i32 %170, i32* %4, align 4
  %171 = load i32, i32* %5, align 4
  %172 = add nsw i32 %171, -1
  store i32 %172, i32* %5, align 4
  br label %41

173:                                              ; preds = %162, %133, %105, %77, %49
  ret i32 0
}

declare dso_local i32 @__isoc99_scanf(i8*, ...) #1

declare dso_local i32 @printf(i8*, ...) #1


!llvm.module.flags = !{!0}
!llvm.ident = !{!1}

!0 = !{i32 1, !"wchar_size", i32 4}
!1 = !{!"clang version 10.0.0-4ubuntu1 "}
